target datalayout = "e-m:e-p270:32:32-p271:32:32-p272:64:64-i64:64-i128:128-f80:128-n8:16:32:64-S128"
target triple = "x86_64-pc-linux-gnu"

; Function Attrs: inlinehint mustprogress nounwind uwtable
define linkonce_odr hidden noundef i32 @_ZN10duckdb_re2anENS_6Regexp10ParseFlagsES1_(i32 noundef %0, i32 noundef %1) #3 comdat {
  %3 = alloca i32, align 4
  %4 = alloca i32, align 4
  store i32 %0, ptr %3, align 4, !tbaa !10
  store i32 %1, ptr %4, align 4, !tbaa !10
  %5 = load i32, ptr %3, align 4, !tbaa !10
  %6 = load i32, ptr %4, align 4, !tbaa !10
  %7 = and i32 %5, %6
  ret i32 %7
}

; Function Attrs: mustprogress uwtable
define hidden void @_ZN10duckdb_re216CharClassBuilder13AddRangeFlagsEiiNS_6Regexp10ParseFlagsE(ptr noundef nonnull align 8 dereferenceable(64) %0, i32 noundef %1, i32 noundef %2, i32 noundef %3) #1 align 2 {
  %5 = alloca ptr, align 8
  %6 = alloca i32, align 4
  %7 = alloca i32, align 4
  %8 = alloca i32, align 4
  %9 = alloca i8, align 1
  %10 = alloca i32, align 4
  store ptr %0, ptr %5, align 8, !tbaa !39
  store i32 %1, ptr %6, align 4, !tbaa !3
  store i32 %2, ptr %7, align 4, !tbaa !3
  store i32 %3, ptr %8, align 4, !tbaa !10
  %11 = load ptr, ptr %5, align 8
  call void @llvm.lifetime.start.p0(i64 1, ptr %9) #19
  %12 = load i32, ptr %8, align 4, !tbaa !10
  %13 = call noundef i32 @_ZN10duckdb_re2anENS_6Regexp10ParseFlagsES1_(i32 noundef %12, i32 noundef 4)
  %14 = icmp ne i32 %13, 0
  br i1 %14, label %15, label %19

15:                                               ; preds = %4
  %16 = load i32, ptr %8, align 4, !tbaa !10
  %17 = call noundef i32 @_ZN10duckdb_re2anENS_6Regexp10ParseFlagsES1_(i32 noundef %16, i32 noundef 2048)
  %18 = icmp ne i32 %17, 0
  br label %19

19:                                               ; preds = %15, %4
  %20 = phi i1 [ true, %4 ], [ %18, %15 ]
  %21 = zext i1 %20 to i8
  store i8 %21, ptr %9, align 1, !tbaa !71
  %22 = load i8, ptr %9, align 1, !tbaa !71, !range !73, !noundef !74
  %23 = trunc i8 %22 to i1
  br i1 %23, label %24, label %43

24:                                               ; preds = %19
  %25 = load i32, ptr %6, align 4, !tbaa !3
  %26 = icmp sle i32 %25, 10
  br i1 %26, label %27, label %43

27:                                               ; preds = %24
  %28 = load i32, ptr %7, align 4, !tbaa !3
  %29 = icmp sle i32 10, %28
  br i1 %29, label %30, label %43

30:                                               ; preds = %27
  %31 = load i32, ptr %6, align 4, !tbaa !3
  %32 = icmp slt i32 %31, 10
  br i1 %32, label %33, label %36

33:                                               ; preds = %30
  %34 = load i32, ptr %6, align 4, !tbaa !3
  %35 = load i32, ptr %8, align 4, !tbaa !10
  call void @_ZN10duckdb_re216CharClassBuilder13AddRangeFlagsEiiNS_6Regexp10ParseFlagsE(ptr noundef nonnull align 8 dereferenceable(64) %11, i32 noundef %34, i32 noundef 9, i32 noundef %35)
  br label %36

36:                                               ; preds = %33, %30
  %37 = load i32, ptr %7, align 4, !tbaa !3
  %38 = icmp sgt i32 %37, 10
  br i1 %38, label %39, label %42

39:                                               ; preds = %36
  %40 = load i32, ptr %7, align 4, !tbaa !3
  %41 = load i32, ptr %8, align 4, !tbaa !10
  call void @_ZN10duckdb_re216CharClassBuilder13AddRangeFlagsEiiNS_6Regexp10ParseFlagsE(ptr noundef nonnull align 8 dereferenceable(64) %11, i32 noundef 11, i32 noundef %40, i32 noundef %41)
  br label %42

42:                                               ; preds = %39, %36
  store i32 1, ptr %10, align 4
  br label %55

43:                                               ; preds = %27, %24, %19
  %44 = load i32, ptr %8, align 4, !tbaa !10
  %45 = call noundef i32 @_ZN10duckdb_re2anENS_6Regexp10ParseFlagsES1_(i32 noundef %44, i32 noundef 1)
  %46 = icmp ne i32 %45, 0
  br i1 %46, label %47, label %50

47:                                               ; preds = %43
  %48 = load i32, ptr %6, align 4, !tbaa !3
  %49 = load i32, ptr %7, align 4, !tbaa !3
  call void @_ZN10duckdb_re2L14AddFoldedRangeEPNS_16CharClassBuilderEiii(ptr noundef %11, i32 noundef %48, i32 noundef %49, i32 noundef 0)
  br label %54

50:                                               ; preds = %43
  %51 = load i32, ptr %6, align 4, !tbaa !3
  %52 = load i32, ptr %7, align 4, !tbaa !3
  %53 = call noundef zeroext i1 @_ZN10duckdb_re216CharClassBuilder8AddRangeEii(ptr noundef nonnull align 8 dereferenceable(64) %11, i32 noundef %51, i32 noundef %52)
  br label %54

54:                                               ; preds = %50, %47
  store i32 0, ptr %10, align 4
  br label %55

55:                                               ; preds = %54, %42
  call void @llvm.lifetime.end.p0(i64 1, ptr %9) #19
  %56 = load i32, ptr %10, align 4
  switch i32 %56, label %58 [
    i32 0, label %57
    i32 1, label %57
  ]

57:                                               ; preds = %55, %55
  ret void

58:                                               ; preds = %55
  unreachable
}