; Function Attrs: mustprogress uwtable
define hidden void @_ZN10duckdb_re216CharClassBuilder13AddRangeFlagsEiiNS_6Regexp10ParseFlagsE(ptr noundef nonnull align 8 dereferenceable(64) %0, i32 noundef %1, i32 noundef %2, i32 noundef %3) local_unnamed_addr #9 align 2 {
  %5 = and i32 %3, 2052
  %6 = icmp ne i32 %5, 4
  %7 = icmp slt i32 %1, 11
  %or.cond = and i1 %7, %6
  %8 = icmp sgt i32 %2, 9
  %or.cond3 = and i1 %8, %or.cond
  br i1 %or.cond3, label %9, label %22

9:                                                ; preds = %4
  %10 = icmp slt i32 %1, 10
  br i1 %10, label %11, label %_ZN10duckdb_re216CharClassBuilder13AddRangeFlagsEiiNS_6Regexp10ParseFlagsE.exit

11:                                               ; preds = %9
  %12 = and i32 %3, 1
  %.not20.i = icmp eq i32 %12, 0
  br i1 %.not20.i, label %14, label %13

13:                                               ; preds = %11
  tail call fastcc void @_ZN10duckdb_re2L14AddFoldedRangeEPNS_16CharClassBuilderEiii(ptr noundef nonnull align 8 dereferenceable(64) %0, i32 noundef %1, i32 noundef 9, i32 noundef 0)
  br label %_ZN10duckdb_re216CharClassBuilder13AddRangeFlagsEiiNS_6Regexp10ParseFlagsE.exit

14:                                               ; preds = %11
  %15 = tail call noundef zeroext i1 @_ZN10duckdb_re216CharClassBuilder8AddRangeEii(ptr noundef nonnull align 8 dereferenceable(64) %0, i32 noundef %1, i32 noundef 9)
  br label %_ZN10duckdb_re216CharClassBuilder13AddRangeFlagsEiiNS_6Regexp10ParseFlagsE.exit

_ZN10duckdb_re216CharClassBuilder13AddRangeFlagsEiiNS_6Regexp10ParseFlagsE.exit: ; preds = %14, %13, %9
  %16 = icmp samesign ugt i32 %2, 10
  br i1 %16, label %17, label %_ZN10duckdb_re216CharClassBuilder13AddRangeFlagsEiiNS_6Regexp10ParseFlagsE.exit24

17:                                               ; preds = %_ZN10duckdb_re216CharClassBuilder13AddRangeFlagsEiiNS_6Regexp10ParseFlagsE.exit
  %18 = and i32 %3, 1
  %.not20.i23 = icmp eq i32 %18, 0
  br i1 %.not20.i23, label %20, label %19

19:                                               ; preds = %17
  tail call fastcc void @_ZN10duckdb_re2L14AddFoldedRangeEPNS_16CharClassBuilderEiii(ptr noundef nonnull align 8 dereferenceable(64) %0, i32 noundef 11, i32 noundef %2, i32 noundef 0)
  br label %_ZN10duckdb_re216CharClassBuilder13AddRangeFlagsEiiNS_6Regexp10ParseFlagsE.exit24

20:                                               ; preds = %17
  %21 = tail call noundef zeroext i1 @_ZN10duckdb_re216CharClassBuilder8AddRangeEii(ptr noundef nonnull align 8 dereferenceable(64) %0, i32 noundef 11, i32 noundef %2)
  br label %_ZN10duckdb_re216CharClassBuilder13AddRangeFlagsEiiNS_6Regexp10ParseFlagsE.exit24

22:                                               ; preds = %4
  %23 = and i32 %3, 1
  %.not20 = icmp eq i32 %23, 0
  br i1 %.not20, label %25, label %24

24:                                               ; preds = %22
  tail call fastcc void @_ZN10duckdb_re2L14AddFoldedRangeEPNS_16CharClassBuilderEiii(ptr noundef %0, i32 noundef %1, i32 noundef %2, i32 noundef 0)
  br label %_ZN10duckdb_re216CharClassBuilder13AddRangeFlagsEiiNS_6Regexp10ParseFlagsE.exit24

25:                                               ; preds = %22
  %26 = tail call noundef zeroext i1 @_ZN10duckdb_re216CharClassBuilder8AddRangeEii(ptr noundef nonnull align 8 dereferenceable(64) %0, i32 noundef %1, i32 noundef %2)
  br label %_ZN10duckdb_re216CharClassBuilder13AddRangeFlagsEiiNS_6Regexp10ParseFlagsE.exit24

_ZN10duckdb_re216CharClassBuilder13AddRangeFlagsEiiNS_6Regexp10ParseFlagsE.exit24: ; preds = %20, %19, %24, %25, %_ZN10duckdb_re216CharClassBuilder13AddRangeFlagsEiiNS_6Regexp10ParseFlagsE.exit
  ret void
}